Certificate:
    Data:
        Version: 3 (0x2)
        Serial Number: 1193049 (0x123459)
        Signature Algorithm: sha256WithRSAEncryption
        Issuer: C=US, L=San Jose, O=IoT HE, CN=iot-he.com
        Validity
            Not Before: Nov 14 02:26:19 2024 GMT
            Not After : Nov 14 02:26:19 2025 GMT
        Subject: C=US, L=San Jose, O=IoT HE, CN=rabbit-fog.iot-he.com
        Subject Public Key Info:
            Public Key Algorithm: rsaEncryption
                RSA Public-Key: (4096 bit)
                Modulus:
                    00:e6:68:e3:04:95:14:75:ca:c0:8a:71:6a:ba:67:
                    37:6f:cd:b1:e7:f0:6d:e3:5d:0e:24:93:14:63:13:
                    64:05:2d:87:93:32:5a:40:5e:de:5b:15:44:64:5b:
                    f4:6c:68:db:74:de:43:0a:dc:a0:97:9b:86:72:b9:
                    c0:84:d6:65:27:fa:8e:09:68:07:3d:5d:25:fd:95:
                    7f:36:00:cf:fa:0c:8f:c1:6b:a7:29:58:81:cb:ed:
                    73:3d:47:4f:f0:a2:68:53:31:77:e9:1e:8d:46:5c:
                    9b:1e:4b:30:6c:b3:7a:82:22:aa:8f:bd:6d:bf:05:
                    ab:8f:13:ea:c9:43:a4:2b:61:ff:51:b3:8b:12:fa:
                    f6:29:0b:53:3b:89:fa:4c:e8:7c:b8:7b:13:6e:e7:
                    33:2d:ba:e1:d5:08:da:24:9a:2b:c7:ba:f4:d6:d8:
                    67:c4:42:02:ef:aa:83:03:1b:c6:09:9e:5b:50:52:
                    9c:95:67:f2:06:58:f5:30:be:9c:ae:1d:ce:7e:0c:
                    ce:4f:2f:df:cb:5d:56:6a:3c:89:3c:54:97:3a:7c:
                    7b:91:67:4e:17:b4:47:d6:82:be:f2:7b:94:ad:e5:
                    bf:42:95:6b:e4:11:fc:f3:3b:20:35:a8:40:4c:9a:
                    50:df:b8:9d:d4:1d:58:8e:41:cd:d2:89:df:42:f1:
                    a8:41:a7:4e:6d:3f:cd:2d:bd:84:90:0f:c0:e2:81:
                    2c:33:30:ed:1d:23:0d:de:e6:56:1a:67:b6:4f:0d:
                    7a:f7:fb:6e:f3:77:77:9c:37:28:f0:33:98:4f:8f:
                    95:25:3b:f9:f3:16:d5:cb:b2:35:96:bf:2d:6a:59:
                    ca:85:76:dd:6a:07:2d:53:da:c4:49:a3:06:8f:49:
                    8b:b2:09:7b:11:96:84:04:cd:a6:3d:c0:b2:75:48:
                    f7:de:b3:38:71:d8:74:c9:71:67:5f:24:5a:cf:ab:
                    e6:8b:af:c5:bc:97:6b:77:c3:fe:5e:ba:61:93:b7:
                    26:ae:dd:6e:23:36:02:e5:a1:12:33:eb:c8:62:85:
                    1a:4c:c1:b8:d1:d1:09:25:61:67:9c:07:d8:6a:ec:
                    ce:6d:80:1b:29:97:54:5f:1f:10:3a:99:4a:14:c6:
                    63:64:92:d0:b1:66:f3:ba:4b:b1:89:7c:26:95:bf:
                    22:7d:b2:20:1e:d4:72:0b:c6:26:f6:e7:a4:38:53:
                    d4:b1:0d:7f:10:00:88:e9:63:73:79:c2:ae:24:8b:
                    32:f0:f2:e0:1b:78:1a:bd:d2:e7:54:5e:26:ac:e8:
                    f9:0d:fb:7d:01:34:2f:c1:0e:dd:eb:cc:19:1b:c2:
                    57:61:d8:07:0f:52:9e:97:1c:eb:81:e0:10:98:14:
                    73:c5:95
                Exponent: 65537 (0x10001)
        X509v3 extensions:
            X509v3 Basic Constraints: 
                CA:FALSE
            Netscape Comment: 
                OpenSSL Generated Certificate
            X509v3 Subject Key Identifier: 
                48:B4:2F:FA:A8:2D:6F:46:68:97:62:36:4E:AB:01:CC:C3:AA:7B:82
            X509v3 Authority Key Identifier: 
                keyid:31:2D:55:84:88:2D:C6:AD:2C:3E:61:B3:FC:48:C2:30:9A:A8:40:DD

            X509v3 Key Usage: 
                Digital Signature
            X509v3 Extended Key Usage: 
                TLS Web Server Authentication
    Signature Algorithm: sha256WithRSAEncryption
         6f:5a:8c:9c:6d:fc:66:4a:05:3b:2b:2c:99:3d:75:5d:ed:fe:
         2a:1e:89:2d:7b:11:21:0f:74:43:66:df:d9:58:53:64:ff:bb:
         44:17:d9:e3:99:e5:0a:21:4d:eb:21:dd:cd:15:e3:7e:92:5f:
         b3:1c:ce:24:dd:21:78:15:3d:7b:fc:d9:66:2f:dd:db:77:05:
         d1:41:5c:a9:eb:36:d1:c6:b3:7c:5c:20:45:66:1f:5b:26:53:
         dd:a9:b4:14:55:b2:04:bd:81:da:ea:f0:92:5e:f9:0d:a8:02:
         f8:2f:30:b7:56:8f:5b:26:56:a4:81:6c:8a:9f:c1:60:96:15:
         26:e9:13:d9:48:59:99:d4:be:ec:bf:e4:a0:1f:b5:53:36:8b:
         e0:2a:2f:ac:d9:ca:08:97:95:c4:89:e5:a9:d6:e1:a2:72:c1:
         35:61:dc:7a:f1:7e:26:a4:87:26:6f:5e:b5:d2:63:38:0a:6a:
         26:37:35:34:e6:d5:fc:16:5f:5f:9b:b9:7e:94:07:01:cc:7a:
         6b:77:4f:0a:ea:61:ba:7e:44:9f:35:f1:ed:68:c8:89:3f:88:
         c9:3a:33:9c:99:ea:e0:d2:63:e4:05:27:dd:5b:23:41:aa:a7:
         96:47:e0:42:2a:ed:ac:26:c9:3f:e9:01:0a:84:aa:d2:27:fa:
         7b:81:45:4e:db:34:e6:59:e6:6e:a5:ad:93:49:63:8a:03:1c:
         5a:bd:0c:c5:67:36:18:b9:10:45:7d:7f:93:d1:77:f1:04:1f:
         8b:cf:cd:62:1f:8e:eb:ea:3b:fe:f2:28:ab:2e:40:fa:68:08:
         89:bc:84:da:ab:d7:4a:fe:1e:5a:17:57:75:b8:6b:41:3b:c7:
         cd:4c:ca:a9:db:a3:5f:7b:91:fe:be:74:d9:c3:66:04:19:9b:
         47:1d:92:ad:32:b1:88:d2:29:e4:35:f4:79:d8:56:20:6a:77:
         da:2c:7a:dc:0a:46:de:58:44:d5:86:e6:b1:d8:72:e3:d2:0b:
         76:a5:0a:44:07:6b:65:74:bb:30:06:d1:bb:2c:01:1e:df:92:
         e9:8c:a1:05:81:4f:6d:0c:c6:ba:2b:25:85:db:d1:fd:e0:b7:
         41:f0:1f:d2:fc:f0:00:05:1f:29:53:60:67:6e:a2:03:54:0d:
         f6:4e:d7:9f:1b:6b:2d:cc:7b:59:3d:76:a9:41:e2:1f:14:b4:
         c6:87:8e:64:05:24:77:f3:ec:4f:44:ce:88:11:a8:be:27:45:
         50:06:b4:6d:53:7e:47:58:a6:62:02:9a:21:56:31:5b:db:67:
         50:e6:0b:15:89:df:09:2d:3c:dd:4d:71:35:a8:03:a7:15:ad:
         02:9e:fa:98:48:1f:44:47
-----BEGIN CERTIFICATE-----
MIIFszCCA5ugAwIBAgIDEjRZMA0GCSqGSIb3DQEBCwUAMEYxCzAJBgNVBAYTAlVT
MREwDwYDVQQHDAhTYW4gSm9zZTEPMA0GA1UECgwGSW9UIEhFMRMwEQYDVQQDDApp
b3QtaGUuY29tMB4XDTI0MTExNDAyMjYxOVoXDTI1MTExNDAyMjYxOVowUTELMAkG
A1UEBhMCVVMxETAPBgNVBAcMCFNhbiBKb3NlMQ8wDQYDVQQKDAZJb1QgSEUxHjAc
BgNVBAMMFXJhYmJpdC1mb2cuaW90LWhlLmNvbTCCAiIwDQYJKoZIhvcNAQEBBQAD
ggIPADCCAgoCggIBAOZo4wSVFHXKwIpxarpnN2/NsefwbeNdDiSTFGMTZAUth5My
WkBe3lsVRGRb9Gxo23TeQwrcoJebhnK5wITWZSf6jgloBz1dJf2VfzYAz/oMj8Fr
pylYgcvtcz1HT/CiaFMxd+kejUZcmx5LMGyzeoIiqo+9bb8Fq48T6slDpCth/1Gz
ixL69ikLUzuJ+kzofLh7E27nMy264dUI2iSaK8e69NbYZ8RCAu+qgwMbxgmeW1BS
nJVn8gZY9TC+nK4dzn4Mzk8v38tdVmo8iTxUlzp8e5FnThe0R9aCvvJ7lK3lv0KV
a+QR/PM7IDWoQEyaUN+4ndQdWI5BzdKJ30LxqEGnTm0/zS29hJAPwOKBLDMw7R0j
Dd7mVhpntk8Nevf7bvN3d5w3KPAzmE+PlSU7+fMW1cuyNZa/LWpZyoV23WoHLVPa
xEmjBo9Ji7IJexGWhATNpj3AsnVI996zOHHYdMlxZ18kWs+r5ouvxbyXa3fD/l66
YZO3Jq7dbiM2AuWhEjPryGKFGkzBuNHRCSVhZ5wH2Grszm2AGymXVF8fEDqZShTG
Y2SS0LFm87pLsYl8JpW/In2yIB7UcgvGJvbnpDhT1LENfxAAiOljc3nCriSLMvDy
4Bt4Gr3S51ReJqzo+Q37fQE0L8EO3evMGRvCV2HYBw9Snpcc64HgEJgUc8WVAgMB
AAGjgZ4wgZswCQYDVR0TBAIwADAsBglghkgBhvhCAQ0EHxYdT3BlblNTTCBHZW5l
cmF0ZWQgQ2VydGlmaWNhdGUwHQYDVR0OBBYEFEi0L/qoLW9GaJdiNk6rAczDqnuC
MB8GA1UdIwQYMBaAFDEtVYSILcatLD5hs/xIwjCaqEDdMAsGA1UdDwQEAwIHgDAT
BgNVHSUEDDAKBggrBgEFBQcDATANBgkqhkiG9w0BAQsFAAOCAgEAb1qMnG38ZkoF
OyssmT11Xe3+Kh6JLXsRIQ90Q2bf2VhTZP+7RBfZ45nlCiFN6yHdzRXjfpJfsxzO
JN0heBU9e/zZZi/d23cF0UFcqes20cazfFwgRWYfWyZT3am0FFWyBL2B2urwkl75
DagC+C8wt1aPWyZWpIFsip/BYJYVJukT2UhZmdS+7L/koB+1UzaL4CovrNnKCJeV
xInlqdbhonLBNWHcevF+JqSHJm9etdJjOApqJjc1NObV/BZfX5u5fpQHAcx6a3dP
Cuphun5EnzXx7WjIiT+IyToznJnq4NJj5AUn3VsjQaqnlkfgQirtrCbJP+kBCoSq
0if6e4FFTts05lnmbqWtk0ljigMcWr0MxWc2GLkQRX1/k9F38QQfi8/NYh+O6+o7
/vIoqy5A+mgIibyE2qvXSv4eWhdXdbhrQTvHzUzKqdujX3uR/r502cNmBBmbRx2S
rTKxiNIp5DX0edhWIGp32ix63ApG3lhE1Ybmsdhy49ILdqUKRAdrZXS7MAbRuywB
Ht+S6YyhBYFPbQzGuislhdvR/eC3QfAf0vzwAAUfKVNgZ26iA1QN9k7XnxtrLcx7
WT12qUHiHxS0xoeOZAUkd/PsT0TOiBGovidFUAa0bVN+R1imYgKaIVYxW9tnUOYL
FYnfCS083U1xNagDpxWtAp76mEgfREc=
-----END CERTIFICATE-----
