Certificate:
    Data:
        Version: 3 (0x2)
        Serial Number: 1193051 (0x12345b)
        Signature Algorithm: sha256WithRSAEncryption
        Issuer: C=US, L=San Jose, O=IoT HE, CN=iot-he.com
        Validity
            Not Before: Nov 14 02:32:57 2024 GMT
            Not After : Nov 14 02:32:57 2025 GMT
        Subject: C=US, L=Denver, O=IoT HE, CN=fog-2.iot-he.com
        Subject Public Key Info:
            Public Key Algorithm: rsaEncryption
                RSA Public-Key: (4096 bit)
                Modulus:
                    00:92:0a:91:0d:02:66:35:7a:8e:24:5b:7e:c9:be:
                    f4:e8:11:bc:7e:5f:1d:4c:01:c0:89:e3:96:49:46:
                    3e:f5:37:8c:9d:2a:5e:ac:b2:48:76:fb:de:53:6e:
                    bb:18:e9:33:67:eb:41:9c:62:af:04:9e:c1:13:b0:
                    92:32:38:83:3c:b8:b9:fc:2e:ce:a6:ef:4a:7f:e2:
                    ac:59:da:5d:d4:62:48:96:1a:16:ca:22:5a:b8:30:
                    6f:06:2e:58:5c:d6:1d:22:67:46:ce:5a:b8:79:77:
                    db:b5:09:4f:41:d2:ae:6f:fd:61:aa:f6:00:7c:ca:
                    e4:67:10:f8:9f:6a:0f:8b:75:77:3b:95:1a:d9:a9:
                    c5:68:65:be:60:49:3c:2c:29:72:ec:56:74:6e:0f:
                    06:80:c3:4a:49:37:47:7f:94:f2:e0:52:73:8e:61:
                    9b:58:02:41:26:8d:c6:96:3c:c5:84:f2:b8:2f:9a:
                    e5:c6:11:16:e5:de:9b:b8:5a:f2:5e:ae:45:07:bd:
                    6d:5b:33:83:8d:6a:2c:be:20:1b:2c:63:1d:03:d6:
                    b7:4b:3b:4d:0f:75:df:00:64:8f:4c:cd:48:be:ac:
                    4c:cf:b0:d5:d8:84:5a:e1:50:e7:00:71:29:37:47:
                    af:2a:16:11:2a:f7:ca:8f:e0:11:6b:68:8e:b1:4f:
                    d7:11:ce:78:5d:a2:f4:01:30:08:53:06:e5:01:a4:
                    a0:a5:8b:fc:0d:ca:95:2a:b0:a7:8f:11:23:d5:22:
                    f4:9a:25:4e:75:23:8c:56:1b:4f:44:fa:76:55:3c:
                    78:ce:6f:80:2f:97:a8:1b:bf:2d:6b:bc:2d:bd:ca:
                    56:3f:4c:03:9f:ab:b8:08:23:ab:42:6a:9c:7b:50:
                    ec:14:0e:51:5b:23:e5:3a:51:72:1d:6e:55:16:1c:
                    57:9f:82:f2:d3:28:4d:56:13:61:11:2c:bb:cf:a5:
                    d9:1e:15:c1:36:d4:c1:22:e8:47:98:81:04:3a:f9:
                    b5:8a:de:88:45:9e:de:df:96:8d:2e:46:37:24:d6:
                    b8:2a:6c:40:d7:47:17:3b:15:a7:6b:ab:8a:be:ae:
                    82:4b:0e:46:64:8a:c7:aa:05:ec:ce:bb:bf:38:a5:
                    11:09:ec:7c:ce:29:42:4b:49:b8:46:cc:f5:5d:bb:
                    48:aa:8a:db:b3:19:e1:f7:ee:5b:0d:e9:e1:09:5a:
                    78:3b:16:c0:4e:23:47:47:fc:46:4e:a4:f7:b6:3f:
                    30:97:89:9c:f6:b8:da:8e:a5:16:c4:3b:91:b8:77:
                    e8:52:45:c4:da:58:37:6c:1e:47:41:dd:ad:e9:77:
                    70:52:96:12:a2:f8:80:47:f7:d2:36:06:70:49:3b:
                    af:cd:1d
                Exponent: 65537 (0x10001)
        X509v3 extensions:
            X509v3 Basic Constraints: 
                CA:FALSE
            Netscape Comment: 
                OpenSSL Generated Certificate
            X509v3 Subject Key Identifier: 
                D4:AF:1E:D2:52:83:80:4C:8B:7B:8A:45:20:CD:74:35:F6:5B:A8:43
            X509v3 Authority Key Identifier: 
                keyid:31:2D:55:84:88:2D:C6:AD:2C:3E:61:B3:FC:48:C2:30:9A:A8:40:DD

            X509v3 Key Usage: 
                Digital Signature
            X509v3 Extended Key Usage: 
                TLS Web Server Authentication
    Signature Algorithm: sha256WithRSAEncryption
         85:26:5f:a3:f2:0f:9a:99:e2:0e:ca:a2:8a:98:ba:41:56:f2:
         5a:c2:03:9b:3d:9b:7e:c6:31:7f:00:ce:b4:cb:49:05:3b:42:
         6b:7e:9b:de:ec:bd:1a:c6:10:08:d6:df:08:e4:47:d8:d6:39:
         73:92:52:5c:02:66:4f:f7:b7:d3:05:8a:f6:dd:db:86:9d:bd:
         23:02:16:90:12:a9:7a:47:a7:ec:ff:f7:8b:f5:8a:19:3b:ac:
         a7:a2:31:be:3e:f7:55:58:50:05:a4:a0:75:ce:4c:db:d3:9a:
         33:cf:70:47:5c:07:8a:73:95:40:51:11:25:ad:1e:50:91:d1:
         1a:b7:3d:e6:89:a5:74:32:2b:d9:14:84:7d:17:8c:57:82:2d:
         36:26:84:5d:15:d8:51:7d:1a:99:35:14:7d:a4:3c:ab:c5:51:
         53:fa:1c:61:2b:b1:51:86:88:29:c2:c4:82:01:aa:db:47:27:
         2f:93:32:c8:44:6c:5b:8b:7a:6c:64:24:bb:65:9d:a4:c2:66:
         1c:09:9e:80:24:9d:1c:ea:b4:76:9e:1d:89:33:bf:e0:b0:0d:
         d6:de:1c:6a:e4:c7:c1:7c:40:af:4f:0c:a7:a9:3e:97:a7:3c:
         66:86:ac:34:b7:09:cd:b2:90:ec:c9:42:23:39:c1:82:fb:0a:
         1d:64:60:58:6f:26:f9:ee:9f:25:6f:fc:c3:4a:3e:4b:a1:58:
         32:36:83:2c:20:e4:9e:ee:04:1f:89:23:cb:13:4c:85:2c:62:
         cd:22:b0:69:03:7b:91:03:49:81:c7:0c:81:fa:c8:10:59:fe:
         2e:17:07:80:81:1c:f1:90:28:17:15:9f:ad:c7:74:3a:40:82:
         91:b3:c1:96:fd:75:e2:a8:87:e4:b7:60:f9:7b:78:67:19:65:
         f5:17:4c:03:70:22:8d:4b:6d:e1:9f:ac:38:08:69:c1:dd:29:
         5e:d0:c4:8d:8a:7f:78:cc:8a:cc:6e:1a:dc:93:21:5f:c4:35:
         fc:cd:9a:96:4c:bc:87:25:c7:ab:09:97:4a:61:81:85:12:9f:
         06:58:55:a6:a7:5b:d9:6b:81:73:43:33:2b:9d:ef:fd:fb:59:
         03:46:0f:25:92:31:e8:8b:d3:c8:8b:38:a3:04:f3:c7:07:cb:
         08:6a:fb:a7:9a:96:ac:0d:50:41:06:37:a3:e3:32:a9:d5:5b:
         dc:74:97:75:e0:2f:22:29:bc:d3:e6:b8:dc:28:41:b7:d9:4b:
         81:8c:f4:db:ba:5e:e6:07:f1:3d:d8:6f:56:23:76:ca:04:d3:
         c1:c6:4e:21:ea:3b:70:e0:f6:cd:71:76:57:d8:26:82:9c:77:
         eb:ed:2b:28:81:fc:27:2c
-----BEGIN CERTIFICATE-----
MIIFrDCCA5SgAwIBAgIDEjRbMA0GCSqGSIb3DQEBCwUAMEYxCzAJBgNVBAYTAlVT
MREwDwYDVQQHDAhTYW4gSm9zZTEPMA0GA1UECgwGSW9UIEhFMRMwEQYDVQQDDApp
b3QtaGUuY29tMB4XDTI0MTExNDAyMzI1N1oXDTI1MTExNDAyMzI1N1owSjELMAkG
A1UEBhMCVVMxDzANBgNVBAcMBkRlbnZlcjEPMA0GA1UECgwGSW9UIEhFMRkwFwYD
VQQDDBBmb2ctMi5pb3QtaGUuY29tMIICIjANBgkqhkiG9w0BAQEFAAOCAg8AMIIC
CgKCAgEAkgqRDQJmNXqOJFt+yb706BG8fl8dTAHAieOWSUY+9TeMnSperLJIdvve
U267GOkzZ+tBnGKvBJ7BE7CSMjiDPLi5/C7Opu9Kf+KsWdpd1GJIlhoWyiJauDBv
Bi5YXNYdImdGzlq4eXfbtQlPQdKub/1hqvYAfMrkZxD4n2oPi3V3O5Ua2anFaGW+
YEk8LCly7FZ0bg8GgMNKSTdHf5Ty4FJzjmGbWAJBJo3GljzFhPK4L5rlxhEW5d6b
uFryXq5FB71tWzODjWosviAbLGMdA9a3SztND3XfAGSPTM1IvqxMz7DV2IRa4VDn
AHEpN0evKhYRKvfKj+ARa2iOsU/XEc54XaL0ATAIUwblAaSgpYv8DcqVKrCnjxEj
1SL0miVOdSOMVhtPRPp2VTx4zm+AL5eoG78ta7wtvcpWP0wDn6u4CCOrQmqce1Ds
FA5RWyPlOlFyHW5VFhxXn4Ly0yhNVhNhESy7z6XZHhXBNtTBIuhHmIEEOvm1it6I
RZ7e35aNLkY3JNa4KmxA10cXOxWna6uKvq6CSw5GZIrHqgXszru/OKURCex8zilC
S0m4Rsz1XbtIqorbsxnh9+5bDenhCVp4OxbATiNHR/xGTqT3tj8wl4mc9rjajqUW
xDuRuHfoUkXE2lg3bB5HQd2t6XdwUpYSoviAR/fSNgZwSTuvzR0CAwEAAaOBnjCB
mzAJBgNVHRMEAjAAMCwGCWCGSAGG+EIBDQQfFh1PcGVuU1NMIEdlbmVyYXRlZCBD
ZXJ0aWZpY2F0ZTAdBgNVHQ4EFgQU1K8e0lKDgEyLe4pFIM10NfZbqEMwHwYDVR0j
BBgwFoAUMS1VhIgtxq0sPmGz/EjCMJqoQN0wCwYDVR0PBAQDAgeAMBMGA1UdJQQM
MAoGCCsGAQUFBwMBMA0GCSqGSIb3DQEBCwUAA4ICAQCFJl+j8g+ameIOyqKKmLpB
VvJawgObPZt+xjF/AM60y0kFO0Jrfpve7L0axhAI1t8I5EfY1jlzklJcAmZP97fT
BYr23duGnb0jAhaQEql6R6fs//eL9YoZO6ynojG+PvdVWFAFpKB1zkzb05ozz3BH
XAeKc5VAURElrR5QkdEatz3miaV0MivZFIR9F4xXgi02JoRdFdhRfRqZNRR9pDyr
xVFT+hxhK7FRhogpwsSCAarbRycvkzLIRGxbi3psZCS7ZZ2kwmYcCZ6AJJ0c6rR2
nh2JM7/gsA3W3hxq5MfBfECvTwynqT6Xpzxmhqw0twnNspDsyUIjOcGC+wodZGBY
byb57p8lb/zDSj5LoVgyNoMsIOSe7gQfiSPLE0yFLGLNIrBpA3uRA0mBxwyB+sgQ
Wf4uFweAgRzxkCgXFZ+tx3Q6QIKRs8GW/XXiqIfkt2D5e3hnGWX1F0wDcCKNS23h
n6w4CGnB3Sle0MSNin94zIrMbhrckyFfxDX8zZqWTLyHJcerCZdKYYGFEp8GWFWm
p1vZa4FzQzMrne/9+1kDRg8lkjHoi9PIizijBPPHB8sIavunmpasDVBBBjej4zKp
1VvcdJd14C8iKbzT5rjcKEG32UuBjPTbul7mB/E92G9WI3bKBNPBxk4h6jtw4PbN
cXZX2CaCnHfr7SsogfwnLA==
-----END CERTIFICATE-----
