Certificate:
    Data:
        Version: 3 (0x2)
        Serial Number: 1193047 (0x123457)
        Signature Algorithm: sha256WithRSAEncryption
        Issuer: C=US, L=San Jose, O=IoT HE, CN=iot-he.com
        Validity
            Not Before: Nov 14 02:19:01 2024 GMT
            Not After : Nov 14 02:19:01 2025 GMT
        Subject: C=US, L=Denver, O=IoT HE, CN=dev-4D5E6F.iot-he.com
        Subject Public Key Info:
            Public Key Algorithm: rsaEncryption
                RSA Public-Key: (4096 bit)
                Modulus:
                    00:d6:be:dc:15:dd:ca:f5:22:e9:bd:30:4c:06:19:
                    ae:fc:d9:5b:91:24:2e:99:38:11:d1:b8:7a:f5:f1:
                    71:66:db:2c:71:a9:c7:d4:ad:f8:89:0e:94:93:e4:
                    e9:16:28:81:6c:d7:d1:ef:d3:d8:c5:a4:32:94:5f:
                    4e:32:44:65:44:32:14:30:02:44:b9:27:38:61:56:
                    30:14:98:ae:8d:f3:6b:56:59:80:d0:b4:54:a3:45:
                    d2:40:f1:d5:3b:11:cc:6b:c1:f5:15:81:47:ca:5a:
                    19:ae:f7:14:74:67:c7:39:d6:4d:0b:96:16:8d:fe:
                    1e:37:ca:50:01:af:21:a3:a4:68:a9:c8:d1:94:85:
                    20:f9:f9:c0:7b:dd:5c:85:8b:b4:4a:34:62:d7:95:
                    f2:4f:07:64:6a:81:13:01:68:df:63:9e:e8:4a:16:
                    2b:33:23:1b:41:5d:c3:09:c0:bc:c0:45:26:1f:61:
                    69:e0:eb:be:5e:e7:16:01:d5:8e:92:df:b3:98:c0:
                    e7:c2:aa:3c:7b:5a:7b:88:36:87:d0:3e:7d:9a:10:
                    cb:57:03:cc:86:a2:28:45:dd:ad:6c:48:55:ba:13:
                    29:07:ac:43:92:7e:cb:e6:4b:ba:d5:cc:59:e9:51:
                    4d:d9:52:31:6b:1b:bf:62:67:cb:43:8b:19:64:ec:
                    23:3a:41:f6:63:18:0e:d2:4c:c4:27:7e:30:d0:c7:
                    3e:68:0f:08:4c:29:0d:87:d6:c9:37:9b:81:e8:fa:
                    02:b9:52:3d:2d:71:2f:1a:b9:c6:25:c3:63:cc:50:
                    9b:30:de:6b:42:d9:3c:7c:6b:d9:09:7e:1e:f4:3b:
                    c8:54:93:1c:60:9d:4e:26:5c:24:ad:6b:fe:90:77:
                    f9:5d:7e:a1:5f:30:bd:ef:92:75:4b:5f:66:1b:bb:
                    e6:19:1d:35:fb:05:0e:aa:d0:8d:81:57:82:4c:aa:
                    cb:7c:7b:f4:bf:ea:fa:82:25:be:ed:81:ed:93:4d:
                    7e:4a:ed:c1:db:b8:b5:ce:e9:26:a2:3a:6f:41:3c:
                    79:46:78:f2:d9:e4:a6:d9:94:2f:b5:8c:b5:c6:8a:
                    52:11:f6:5c:34:c4:0d:3d:11:e2:45:c0:bd:a8:14:
                    a2:8a:6e:63:50:c0:41:77:2c:41:41:8c:64:6a:db:
                    e6:80:c6:0e:e6:8f:45:10:7c:2b:9b:d4:65:60:70:
                    75:63:4c:d8:c5:b6:ce:b9:60:27:97:f0:64:c5:1d:
                    57:16:fe:f7:ca:f1:6b:21:9b:58:49:21:6e:c2:54:
                    45:a5:6b:32:39:bc:99:2d:fb:7c:00:ec:07:1d:7d:
                    ad:7c:7b:a1:ce:ea:82:dc:b0:6b:dc:c5:90:b0:c6:
                    53:1b:39
                Exponent: 65537 (0x10001)
        X509v3 extensions:
            X509v3 Basic Constraints: 
                CA:FALSE
            Netscape Comment: 
                OpenSSL Generated Certificate
            X509v3 Subject Key Identifier: 
                77:4F:D4:5D:CC:20:CA:68:B7:6F:09:5D:AB:4F:39:3F:3A:89:D3:3E
            X509v3 Authority Key Identifier: 
                keyid:31:2D:55:84:88:2D:C6:AD:2C:3E:61:B3:FC:48:C2:30:9A:A8:40:DD

            X509v3 Key Usage: 
                Digital Signature
            X509v3 Extended Key Usage: 
                TLS Web Server Authentication
    Signature Algorithm: sha256WithRSAEncryption
         18:74:2b:99:d5:41:79:94:0e:a3:f9:4b:56:97:58:a5:40:d8:
         d1:4f:64:80:5b:35:4f:83:05:4b:14:8e:91:5f:10:3a:a0:3a:
         78:1e:46:e4:17:e4:7e:9f:8c:71:e7:89:10:b1:14:7e:f1:69:
         8a:50:a3:a4:cf:02:9c:5b:8f:35:2f:c0:61:45:1b:b6:be:8b:
         27:0a:f2:ab:af:be:81:ca:db:d8:41:be:dd:4b:c2:44:24:28:
         b0:fe:22:ee:06:c6:46:43:a3:51:ff:09:f4:92:bb:5e:ef:7f:
         d2:d8:67:1e:c4:67:31:51:16:a9:ec:55:63:8e:b0:d4:95:ea:
         6c:db:08:92:8a:7f:72:9e:11:8a:99:d0:85:83:52:e0:4a:93:
         93:41:c4:23:f3:1d:b7:ee:e0:28:00:1b:c3:5b:38:75:fa:22:
         64:9b:1b:61:5c:98:82:87:80:e0:46:3a:eb:16:9f:d5:be:69:
         59:c9:a3:e9:54:2a:31:f2:0c:e2:87:b5:3b:24:bc:d1:9c:8f:
         9b:5a:cb:96:ed:bd:6b:e3:e6:31:ff:27:17:61:30:23:59:11:
         70:22:1b:9a:37:cb:8a:28:79:38:47:c5:77:fb:4c:f0:3e:b0:
         1c:0b:d6:2f:fa:7e:26:41:76:4a:03:c4:bd:7b:8e:98:45:f5:
         59:ea:98:02:a6:d8:a6:9a:30:35:bd:dd:97:9b:79:83:21:19:
         95:8c:66:86:a9:1b:c7:d0:5c:cc:0a:c4:d4:a6:c6:17:99:4f:
         d7:04:6f:20:96:d6:f7:45:18:04:be:18:fe:6d:09:fd:e7:11:
         28:2a:7d:7b:68:b0:35:86:3c:92:11:df:7f:13:6d:ac:56:b0:
         4d:20:b7:42:b5:57:47:a5:c4:4d:f4:01:52:9c:70:22:78:e0:
         21:a5:10:c0:6e:e5:3a:5d:f0:07:df:f3:84:9d:98:7c:35:19:
         ae:2d:7c:80:5e:70:e5:72:3d:58:94:c8:7a:df:a8:6d:5a:81:
         5a:ec:fd:e7:c4:f9:f5:08:00:59:e0:a5:d3:13:dc:30:57:f3:
         bf:f6:8c:af:6d:d4:4a:d6:74:9a:5b:5d:dc:67:d0:2e:32:1b:
         c7:a8:83:b4:44:5b:20:11:8d:42:1d:15:08:e2:05:23:40:77:
         e6:b2:02:dc:34:ba:19:a8:21:73:53:4c:98:8b:e2:9a:8c:65:
         bc:ed:f6:34:c4:cf:80:25:59:3b:fd:c8:cf:37:c3:04:32:ad:
         58:a3:64:44:c2:d6:50:3e:58:d2:3b:fb:4e:19:02:fd:02:03:
         f9:7d:45:87:c2:db:5a:8a:7e:e0:80:ef:96:a8:20:e2:30:3b:
         e5:35:5b:15:69:bb:11:ec
-----BEGIN CERTIFICATE-----
MIIFsTCCA5mgAwIBAgIDEjRXMA0GCSqGSIb3DQEBCwUAMEYxCzAJBgNVBAYTAlVT
MREwDwYDVQQHDAhTYW4gSm9zZTEPMA0GA1UECgwGSW9UIEhFMRMwEQYDVQQDDApp
b3QtaGUuY29tMB4XDTI0MTExNDAyMTkwMVoXDTI1MTExNDAyMTkwMVowTzELMAkG
A1UEBhMCVVMxDzANBgNVBAcMBkRlbnZlcjEPMA0GA1UECgwGSW9UIEhFMR4wHAYD
VQQDDBVkZXYtNEQ1RTZGLmlvdC1oZS5jb20wggIiMA0GCSqGSIb3DQEBAQUAA4IC
DwAwggIKAoICAQDWvtwV3cr1Ium9MEwGGa782VuRJC6ZOBHRuHr18XFm2yxxqcfU
rfiJDpST5OkWKIFs19Hv09jFpDKUX04yRGVEMhQwAkS5JzhhVjAUmK6N82tWWYDQ
tFSjRdJA8dU7EcxrwfUVgUfKWhmu9xR0Z8c51k0LlhaN/h43ylABryGjpGipyNGU
hSD5+cB73VyFi7RKNGLXlfJPB2RqgRMBaN9jnuhKFiszIxtBXcMJwLzARSYfYWng
675e5xYB1Y6S37OYwOfCqjx7WnuINofQPn2aEMtXA8yGoihF3a1sSFW6EykHrEOS
fsvmS7rVzFnpUU3ZUjFrG79iZ8tDixlk7CM6QfZjGA7STMQnfjDQxz5oDwhMKQ2H
1sk3m4Ho+gK5Uj0tcS8aucYlw2PMUJsw3mtC2Tx8a9kJfh70O8hUkxxgnU4mXCSt
a/6Qd/ldfqFfML3vknVLX2Ybu+YZHTX7BQ6q0I2BV4JMqst8e/S/6vqCJb7tge2T
TX5K7cHbuLXO6SaiOm9BPHlGePLZ5KbZlC+1jLXGilIR9lw0xA09EeJFwL2oFKKK
bmNQwEF3LEFBjGRq2+aAxg7mj0UQfCub1GVgcHVjTNjFts65YCeX8GTFHVcW/vfK
8Wshm1hJIW7CVEWlazI5vJkt+3wA7Acdfa18e6HO6oLcsGvcxZCwxlMbOQIDAQAB
o4GeMIGbMAkGA1UdEwQCMAAwLAYJYIZIAYb4QgENBB8WHU9wZW5TU0wgR2VuZXJh
dGVkIENlcnRpZmljYXRlMB0GA1UdDgQWBBR3T9RdzCDKaLdvCV2rTzk/OonTPjAf
BgNVHSMEGDAWgBQxLVWEiC3GrSw+YbP8SMIwmqhA3TALBgNVHQ8EBAMCB4AwEwYD
VR0lBAwwCgYIKwYBBQUHAwEwDQYJKoZIhvcNAQELBQADggIBABh0K5nVQXmUDqP5
S1aXWKVA2NFPZIBbNU+DBUsUjpFfEDqgOngeRuQX5H6fjHHniRCxFH7xaYpQo6TP
ApxbjzUvwGFFG7a+iycK8quvvoHK29hBvt1LwkQkKLD+Iu4GxkZDo1H/CfSSu17v
f9LYZx7EZzFRFqnsVWOOsNSV6mzbCJKKf3KeEYqZ0IWDUuBKk5NBxCPzHbfu4CgA
G8NbOHX6ImSbG2FcmIKHgOBGOusWn9W+aVnJo+lUKjHyDOKHtTskvNGcj5tay5bt
vWvj5jH/JxdhMCNZEXAiG5o3y4ooeThHxXf7TPA+sBwL1i/6fiZBdkoDxL17jphF
9VnqmAKm2KaaMDW93ZebeYMhGZWMZoapG8fQXMwKxNSmxheZT9cEbyCW1vdFGAS+
GP5tCf3nESgqfXtosDWGPJIR338TbaxWsE0gt0K1V0elxE30AVKccCJ44CGlEMBu
5Tpd8Aff84SdmHw1Ga4tfIBecOVyPViUyHrfqG1agVrs/efE+fUIAFngpdMT3DBX
87/2jK9t1ErWdJpbXdxn0C4yG8eog7REWyARjUIdFQjiBSNAd+ayAtw0uhmoIXNT
TJiL4pqMZbzt9jTEz4AlWTv9yM83wwQyrVijZETC1lA+WNI7+04ZAv0CA/l9RYfC
21qKfuCA75aoIOIwO+U1WxVpuxHs
-----END CERTIFICATE-----
