Certificate:
    Data:
        Version: 3 (0x2)
        Serial Number: 1193046 (0x123456)
        Signature Algorithm: sha256WithRSAEncryption
        Issuer: C=US, L=San Jose, O=IoT HE, CN=iot-he.com
        Validity
            Not Before: Nov 14 02:13:22 2024 GMT
            Not After : Nov 14 02:13:22 2025 GMT
        Subject: C=US, L=Denver, O=IoT HE, CN=dev-1A2B3C.iot-he.com
        Subject Public Key Info:
            Public Key Algorithm: rsaEncryption
                RSA Public-Key: (4096 bit)
                Modulus:
                    00:a6:2b:f6:a4:fe:2f:a6:ce:2e:7b:70:65:0b:59:
                    38:c9:cc:68:18:44:29:b6:b6:52:02:7d:c6:2e:2a:
                    20:68:5e:40:64:bb:c2:57:14:97:9e:a3:ca:1e:4c:
                    5a:29:63:99:93:d8:e7:31:2d:24:6a:04:5b:ea:2c:
                    84:98:3a:83:7f:a7:5b:ca:04:6e:93:4f:f3:dd:ff:
                    8a:a1:b7:78:04:34:2a:ec:37:df:4d:45:4d:37:72:
                    c7:f2:3f:63:2d:bf:c7:4c:28:d1:51:18:e9:04:4c:
                    8a:c3:90:d0:62:19:af:20:dc:0b:ce:ff:49:c9:33:
                    3b:9a:82:31:30:e2:38:a3:4e:61:53:78:ac:96:11:
                    46:61:11:6b:59:5e:bd:d5:2f:64:8d:8f:f9:8a:fb:
                    60:3e:78:61:6d:7f:f5:72:d8:2f:0f:2c:47:d4:47:
                    be:99:66:18:51:32:4b:a7:91:19:7f:b9:0d:e2:64:
                    bf:74:a7:a7:dd:37:4b:99:4c:48:5f:02:cc:ca:be:
                    1e:98:22:1d:1d:b8:f4:af:9d:77:3a:0b:ff:7f:3f:
                    eb:fc:7e:b7:3b:fb:0a:0c:b9:af:af:6d:6a:5a:0f:
                    2f:94:8d:9c:79:c5:0d:56:17:24:f4:0a:9f:af:58:
                    8a:43:09:d7:1c:f9:89:c6:fb:6f:12:cf:4f:ae:31:
                    84:3b:de:2d:f5:a8:e6:e9:25:69:ec:10:b7:27:f3:
                    e0:3c:34:38:bc:26:9b:cf:c6:3d:26:76:00:8e:3c:
                    6c:ca:2c:a6:b5:d0:39:06:60:2b:6a:ca:63:ed:66:
                    4f:6a:46:8f:7f:e7:08:cb:fa:20:37:a3:4f:95:e4:
                    1d:27:76:20:8f:c9:15:5d:c0:4f:49:fe:13:e9:89:
                    f4:61:ff:38:14:b2:70:24:44:d2:61:af:1a:1f:de:
                    10:72:bd:07:8d:5d:73:d0:69:2b:24:bf:a1:97:93:
                    f2:7a:7e:92:ad:4c:ac:ca:04:7b:57:8c:fb:43:41:
                    ab:72:27:89:11:26:46:09:c0:0b:b0:d3:4b:74:f8:
                    7b:0b:94:3f:cb:4e:90:89:98:8a:47:9e:d6:43:20:
                    31:36:4d:65:7e:21:fc:09:90:c5:3f:0c:fd:4d:db:
                    a1:5f:6b:90:66:68:d5:66:56:64:1e:75:bb:b2:85:
                    06:e9:91:c1:4e:be:86:fe:6d:fd:6b:09:31:05:76:
                    03:ce:d4:e3:ee:d7:8d:37:d9:8e:14:fa:16:b3:23:
                    d3:b4:bc:76:f7:4f:9d:bd:26:b2:fe:6d:79:e3:c8:
                    9d:0c:cf:61:39:7b:31:2b:4d:5e:b1:b7:e9:36:74:
                    a4:f6:9d:7c:2d:45:0b:59:c2:1c:30:20:31:dc:2a:
                    b7:38:17
                Exponent: 65537 (0x10001)
        X509v3 extensions:
            X509v3 Basic Constraints: 
                CA:FALSE
            Netscape Comment: 
                OpenSSL Generated Certificate
            X509v3 Subject Key Identifier: 
                7D:06:8F:C3:DD:E4:98:F6:6C:C4:2C:A4:EE:8B:5F:38:68:63:5A:09
            X509v3 Authority Key Identifier: 
                keyid:31:2D:55:84:88:2D:C6:AD:2C:3E:61:B3:FC:48:C2:30:9A:A8:40:DD

            X509v3 Key Usage: 
                Digital Signature
            X509v3 Extended Key Usage: 
                TLS Web Server Authentication
    Signature Algorithm: sha256WithRSAEncryption
         4c:32:29:d5:c4:4c:99:63:ec:04:fe:96:12:95:a0:04:eb:92:
         5b:4f:92:12:2e:6b:9e:9c:24:9b:86:74:76:dc:ce:f3:e1:63:
         a0:c0:ed:cf:8c:59:59:11:70:89:2b:02:15:0d:c9:a3:77:03:
         bd:47:ba:b0:2a:61:e7:0a:ee:60:b8:2c:38:d7:d4:40:29:ca:
         37:4b:b0:d8:e4:ba:f9:24:5d:74:a2:86:5c:09:c0:41:04:39:
         89:67:86:20:b5:b9:f6:55:58:ce:22:1b:97:b6:ef:19:0c:35:
         61:6e:8a:e9:05:0c:92:f7:9b:df:ef:02:ed:74:c2:db:f3:73:
         9a:71:17:01:59:a9:a2:fb:0f:1a:c1:c7:a7:b3:59:e9:cf:3b:
         11:8a:11:99:73:8c:2b:60:5f:58:4e:9a:37:75:9f:36:34:42:
         80:ec:1b:2e:29:3b:a8:f8:b9:95:85:be:d2:f7:43:d8:e9:72:
         30:76:88:f5:1f:43:b2:70:72:88:18:7e:13:56:6e:ca:dd:18:
         d3:2f:f7:9b:0d:97:2d:80:69:e8:4a:4a:e4:e0:56:d0:4a:d1:
         1a:02:41:52:99:2b:33:39:31:33:ed:21:78:c9:34:bd:2e:d4:
         a3:b4:f9:0a:28:3b:75:bf:48:d2:3a:83:44:b7:a3:9e:f8:77:
         11:46:40:a7:86:d0:ff:4f:f4:7f:4e:76:e8:be:2d:97:4b:5f:
         5d:83:b9:b2:c0:c1:48:32:31:77:c2:a9:6d:da:b5:a9:6f:bb:
         17:9f:6c:62:3a:b8:bb:a9:f3:08:82:8c:84:ad:b7:59:e0:d1:
         32:84:d4:90:50:4e:9a:56:3e:31:b6:ca:64:4b:48:1e:73:96:
         bb:7d:f7:db:8a:7a:0e:96:08:d3:8a:b4:f2:e4:11:e8:68:da:
         0f:48:b0:c9:30:fb:23:d4:57:f2:12:6d:ee:a1:61:4f:ae:d1:
         04:97:c1:5d:6e:76:43:ab:ac:4d:d6:a4:be:01:a3:a7:f2:3a:
         5a:db:44:30:81:05:ad:1b:b9:c6:ab:0b:02:ae:e5:cc:50:91:
         69:38:e1:2c:38:2c:a5:ed:91:b5:bf:aa:97:a1:74:52:9f:2b:
         f9:2a:3a:01:bc:70:33:5f:e2:2d:6d:63:e9:f9:13:ec:55:7a:
         e4:92:c5:55:96:bc:31:e9:37:a9:b8:9c:c5:98:a3:d0:30:36:
         1d:3d:7b:3a:ee:49:b0:78:2f:9c:19:af:e8:a4:0c:34:a9:53:
         ec:56:e6:2f:26:fd:27:ed:b5:dc:26:25:4f:42:77:2d:d3:fc:
         6e:00:d9:e3:8b:b8:d4:16:80:c1:2b:a6:e0:3e:16:2d:5c:73:
         51:dc:26:61:79:3d:58:da
-----BEGIN CERTIFICATE-----
MIIFsTCCA5mgAwIBAgIDEjRWMA0GCSqGSIb3DQEBCwUAMEYxCzAJBgNVBAYTAlVT
MREwDwYDVQQHDAhTYW4gSm9zZTEPMA0GA1UECgwGSW9UIEhFMRMwEQYDVQQDDApp
b3QtaGUuY29tMB4XDTI0MTExNDAyMTMyMloXDTI1MTExNDAyMTMyMlowTzELMAkG
A1UEBhMCVVMxDzANBgNVBAcMBkRlbnZlcjEPMA0GA1UECgwGSW9UIEhFMR4wHAYD
VQQDDBVkZXYtMUEyQjNDLmlvdC1oZS5jb20wggIiMA0GCSqGSIb3DQEBAQUAA4IC
DwAwggIKAoICAQCmK/ak/i+mzi57cGULWTjJzGgYRCm2tlICfcYuKiBoXkBku8JX
FJeeo8oeTFopY5mT2OcxLSRqBFvqLISYOoN/p1vKBG6TT/Pd/4qht3gENCrsN99N
RU03csfyP2Mtv8dMKNFRGOkETIrDkNBiGa8g3AvO/0nJMzuagjEw4jijTmFTeKyW
EUZhEWtZXr3VL2SNj/mK+2A+eGFtf/Vy2C8PLEfUR76ZZhhRMkunkRl/uQ3iZL90
p6fdN0uZTEhfAszKvh6YIh0duPSvnXc6C/9/P+v8frc7+woMua+vbWpaDy+UjZx5
xQ1WFyT0Cp+vWIpDCdcc+YnG+28Sz0+uMYQ73i31qObpJWnsELcn8+A8NDi8JpvP
xj0mdgCOPGzKLKa10DkGYCtqymPtZk9qRo9/5wjL+iA3o0+V5B0ndiCPyRVdwE9J
/hPpifRh/zgUsnAkRNJhrxof3hByvQeNXXPQaSskv6GXk/J6fpKtTKzKBHtXjPtD
QatyJ4kRJkYJwAuw00t0+HsLlD/LTpCJmIpHntZDIDE2TWV+IfwJkMU/DP1N26Ff
a5BmaNVmVmQedbuyhQbpkcFOvob+bf1rCTEFdgPO1OPu14032Y4U+hazI9O0vHb3
T529JrL+bXnjyJ0Mz2E5ezErTV6xt+k2dKT2nXwtRQtZwhwwIDHcKrc4FwIDAQAB
o4GeMIGbMAkGA1UdEwQCMAAwLAYJYIZIAYb4QgENBB8WHU9wZW5TU0wgR2VuZXJh
dGVkIENlcnRpZmljYXRlMB0GA1UdDgQWBBR9Bo/D3eSY9mzELKTui184aGNaCTAf
BgNVHSMEGDAWgBQxLVWEiC3GrSw+YbP8SMIwmqhA3TALBgNVHQ8EBAMCB4AwEwYD
VR0lBAwwCgYIKwYBBQUHAwEwDQYJKoZIhvcNAQELBQADggIBAEwyKdXETJlj7AT+
lhKVoATrkltPkhIua56cJJuGdHbczvPhY6DA7c+MWVkRcIkrAhUNyaN3A71HurAq
YecK7mC4LDjX1EApyjdLsNjkuvkkXXSihlwJwEEEOYlnhiC1ufZVWM4iG5e27xkM
NWFuiukFDJL3m9/vAu10wtvzc5pxFwFZqaL7DxrBx6ezWenPOxGKEZlzjCtgX1hO
mjd1nzY0QoDsGy4pO6j4uZWFvtL3Q9jpcjB2iPUfQ7JwcogYfhNWbsrdGNMv95sN
ly2AaehKSuTgVtBK0RoCQVKZKzM5MTPtIXjJNL0u1KO0+QooO3W/SNI6g0S3o574
dxFGQKeG0P9P9H9Odui+LZdLX12DubLAwUgyMXfCqW3atalvuxefbGI6uLup8wiC
jIStt1ng0TKE1JBQTppWPjG2ymRLSB5zlrt999uKeg6WCNOKtPLkEeho2g9IsMkw
+yPUV/ISbe6hYU+u0QSXwV1udkOrrE3WpL4Bo6fyOlrbRDCBBa0bucarCwKu5cxQ
kWk44Sw4LKXtkbW/qpehdFKfK/kqOgG8cDNf4i1tY+n5E+xVeuSSxVWWvDHpN6m4
nMWYo9AwNh09ezruSbB4L5wZr+ikDDSpU+xW5i8m/SfttdwmJU9Cdy3T/G4A2eOL
uNQWgMErpuA+Fi1cc1HcJmF5PVja
-----END CERTIFICATE-----
